#include <math.h>
#include <stdio.h>
#include <stdlib.h>
#include <string.h>

void main()
{
	char a[10001];
	int i,j,k,flag;
	char c;
	i=0;
	while((c=getchar())!='\n')
	{
		a[i]=c;
		i++;
	}
	a[i]=' ';
	flag=1;
	for(j=0;j<i;j++)
	{
		if (flag==1)
		{
		if (a[j]!=' ')
		{
			k=0;
			while(a[j+k]!=' ')
			{
				k++;
			}
			printf("%d",k);
			j=j+k;
			flag=0;
		}
		}
		else
		{
			if (a[j]!=' ')
		{
			k=0;
			while(a[j+k]!=' ')
			{
				k++;
			}
			printf(",%d",k);
			j=j+k;
		}
		}
	}
}