; ModuleID = '28/136.c'
source_filename = "28/136.c"
target datalayout = "e-m:e-p270:32:32-p271:32:32-p272:64:64-i64:64-f80:128-n8:16:32:64-S128"
target triple = "x86_64-pc-linux-gnu"

@.str = private unnamed_addr constant [3 x i8] c"%d\00", align 1
@.str.1 = private unnamed_addr constant [4 x i8] c",%d\00", align 1

; Function Attrs: noinline nounwind uwtable
define dso_local void @main() #0 {
  %1 = alloca [10001 x i8], align 16
  %2 = alloca i32, align 4
  %3 = alloca i32, align 4
  %4 = alloca i32, align 4
  %5 = alloca i32, align 4
  %6 = alloca i8, align 1
  store i32 0, i32* %2, align 4
  br label %7

7:                                                ; preds = %12, %0
  %8 = call i32 @getchar()
  %9 = trunc i32 %8 to i8
  store i8 %9, i8* %6, align 1
  %10 = sext i8 %9 to i32
  %11 = icmp ne i32 %10, 10
  br i1 %11, label %12, label %19

12:                                               ; preds = %7
  %13 = load i8, i8* %6, align 1
  %14 = load i32, i32* %2, align 4
  %15 = sext i32 %14 to i64
  %16 = getelementptr inbounds [10001 x i8], [10001 x i8]* %1, i64 0, i64 %15
  store i8 %13, i8* %16, align 1
  %17 = load i32, i32* %2, align 4
  %18 = add nsw i32 %17, 1
  store i32 %18, i32* %2, align 4
  br label %7

19:                                               ; preds = %7
  %20 = load i32, i32* %2, align 4
  %21 = sext i32 %20 to i64
  %22 = getelementptr inbounds [10001 x i8], [10001 x i8]* %1, i64 0, i64 %21
  store i8 32, i8* %22, align 1
  store i32 1, i32* %5, align 4
  store i32 0, i32* %3, align 4
  br label %23

23:                                               ; preds = %85, %19
  %24 = load i32, i32* %3, align 4
  %25 = load i32, i32* %2, align 4
  %26 = icmp slt i32 %24, %25
  br i1 %26, label %27, label %88

27:                                               ; preds = %23
  %28 = load i32, i32* %5, align 4
  %29 = icmp eq i32 %28, 1
  br i1 %29, label %30, label %57

30:                                               ; preds = %27
  %31 = load i32, i32* %3, align 4
  %32 = sext i32 %31 to i64
  %33 = getelementptr inbounds [10001 x i8], [10001 x i8]* %1, i64 0, i64 %32
  %34 = load i8, i8* %33, align 1
  %35 = sext i8 %34 to i32
  %36 = icmp ne i32 %35, 32
  br i1 %36, label %37, label %56

37:                                               ; preds = %30
  store i32 0, i32* %4, align 4
  br label %38

38:                                               ; preds = %47, %37
  %39 = load i32, i32* %3, align 4
  %40 = load i32, i32* %4, align 4
  %41 = add nsw i32 %39, %40
  %42 = sext i32 %41 to i64
  %43 = getelementptr inbounds [10001 x i8], [10001 x i8]* %1, i64 0, i64 %42
  %44 = load i8, i8* %43, align 1
  %45 = sext i8 %44 to i32
  %46 = icmp ne i32 %45, 32
  br i1 %46, label %47, label %50

47:                                               ; preds = %38
  %48 = load i32, i32* %4, align 4
  %49 = add nsw i32 %48, 1
  store i32 %49, i32* %4, align 4
  br label %38

50:                                               ; preds = %38
  %51 = load i32, i32* %4, align 4
  %52 = call i32 (i8*, ...) @printf(i8* getelementptr inbounds ([3 x i8], [3 x i8]* @.str, i64 0, i64 0), i32 %51)
  %53 = load i32, i32* %3, align 4
  %54 = load i32, i32* %4, align 4
  %55 = add nsw i32 %53, %54
  store i32 %55, i32* %3, align 4
  store i32 0, i32* %5, align 4
  br label %56

56:                                               ; preds = %50, %30
  br label %84

57:                                               ; preds = %27
  %58 = load i32, i32* %3, align 4
  %59 = sext i32 %58 to i64
  %60 = getelementptr inbounds [10001 x i8], [10001 x i8]* %1, i64 0, i64 %59
  %61 = load i8, i8* %60, align 1
  %62 = sext i8 %61 to i32
  %63 = icmp ne i32 %62, 32
  br i1 %63, label %64, label %83

64:                                               ; preds = %57
  store i32 0, i32* %4, align 4
  br label %65

65:                                               ; preds = %74, %64
  %66 = load i32, i32* %3, align 4
  %67 = load i32, i32* %4, align 4
  %68 = add nsw i32 %66, %67
  %69 = sext i32 %68 to i64
  %70 = getelementptr inbounds [10001 x i8], [10001 x i8]* %1, i64 0, i64 %69
  %71 = load i8, i8* %70, align 1
  %72 = sext i8 %71 to i32
  %73 = icmp ne i32 %72, 32
  br i1 %73, label %74, label %77

74:                                               ; preds = %65
  %75 = load i32, i32* %4, align 4
  %76 = add nsw i32 %75, 1
  store i32 %76, i32* %4, align 4
  br label %65

77:                                               ; preds = %65
  %78 = load i32, i32* %4, align 4
  %79 = call i32 (i8*, ...) @printf(i8* getelementptr inbounds ([4 x i8], [4 x i8]* @.str.1, i64 0, i64 0), i32 %78)
  %80 = load i32, i32* %3, align 4
  %81 = load i32, i32* %4, align 4
  %82 = add nsw i32 %80, %81
  store i32 %82, i32* %3, align 4
  br label %83

83:                                               ; preds = %77, %57
  br label %84

84:                                               ; preds = %83, %56
  br label %85

85:                                               ; preds = %84
  %86 = load i32, i32* %3, align 4
  %87 = add nsw i32 %86, 1
  store i32 %87, i32* %3, align 4
  br label %23

88:                                               ; preds = %23
  ret void
}

declare dso_local i32 @getchar() #1

declare dso_local i32 @printf(i8*, ...) #1


!llvm.module.flags = !{!0}
!llvm.ident = !{!1}

!0 = !{i32 1, !"wchar_size", i32 4}
!1 = !{!"clang version 10.0.0-4ubuntu1 "}
